; Function Attrs: mustprogress nounwind uwtable
define internal fastcc void @_ZSt8_DestroyIN5arrow12_GLOBAL__N_113ArrayExporterEEvPT_(ptr nocapture noundef nonnull %__pointer) unnamed_addr #1 personality ptr @__gxx_personality_v0 {
entry:
  %child_exporters_.i = getelementptr inbounds i8, ptr %__pointer, i64 352
  %0 = load ptr, ptr %child_exporters_.i, align 8
  %_M_finish.i.i = getelementptr inbounds i8, ptr %__pointer, i64 360
  %1 = load ptr, ptr %_M_finish.i.i, align 8
  tail call fastcc void @_ZSt8_DestroyIPN5arrow12_GLOBAL__N_113ArrayExporterES2_EvT_S4_RSaIT0_E(ptr noundef %0, ptr noundef %1)
  %this.val.i.i = load ptr, ptr %child_exporters_.i, align 8
  %tobool.not.i.i.i = icmp eq ptr %this.val.i.i, null
  br i1 %tobool.not.i.i.i, label %_ZNSt12_Vector_baseIN5arrow12_GLOBAL__N_113ArrayExporterESaIS2_EED2Ev.exit.i, label %if.then.i.i.i

if.then.i.i.i:                                    ; preds = %entry
  tail call void @_ZdlPv(ptr noundef nonnull %this.val.i.i) #26
  br label %_ZNSt12_Vector_baseIN5arrow12_GLOBAL__N_113ArrayExporterESaIS2_EED2Ev.exit.i

_ZNSt12_Vector_baseIN5arrow12_GLOBAL__N_113ArrayExporterESaIS2_EED2Ev.exit.i: ; preds = %if.then.i.i.i, %entry
  %dict_exporter_.i = getelementptr inbounds i8, ptr %__pointer, i64 344
  %2 = load ptr, ptr %dict_exporter_.i, align 8
  %cmp.not.i.i = icmp eq ptr %2, null
  br i1 %cmp.not.i.i, label %_ZN5arrow12_GLOBAL__N_113ArrayExporterD2Ev.exit, label %if.then.i.i

if.then.i.i:                                      ; preds = %_ZNSt12_Vector_baseIN5arrow12_GLOBAL__N_113ArrayExporterESaIS2_EED2Ev.exit.i
  tail call fastcc void @_ZNKSt14default_deleteIN5arrow12_GLOBAL__N_113ArrayExporterEEclEPS2_(ptr noundef nonnull %2)
  br label %_ZN5arrow12_GLOBAL__N_113ArrayExporterD2Ev.exit

_ZN5arrow12_GLOBAL__N_113ArrayExporterD2Ev.exit:  ; preds = %_ZNSt12_Vector_baseIN5arrow12_GLOBAL__N_113ArrayExporterESaIS2_EED2Ev.exit.i, %if.then.i.i
  store ptr null, ptr %dict_exporter_.i, align 8
  tail call fastcc void @_ZN5arrow12_GLOBAL__N_124ExportedArrayPrivateDataD2Ev(ptr noundef nonnull align 8 dereferenceable(344) %__pointer) #24
  ret void
}